target datalayout = "e-m:e-p270:32:32-p271:32:32-p272:64:64-i64:64-i128:128-f80:128-n8:16:32:64-S128"
target triple = "x86_64-pc-linux-gnu"

@.str.42 = private unnamed_addr constant [1 x i8] zeroinitializer, align 1
@tpOID = internal global ptr null, align 8
@ett_h225_TunnelledProtocol = internal global i32 0, align 4
@tp_dissector_table = internal global ptr null, align 8
@tp_handle = internal global ptr null, align 8

; Function Attrs: null_pointer_is_valid sspstrong uwtable
define hidden i32 @dissect_h225_TunnelledProtocol(ptr noundef %0, i32 noundef %1, ptr noundef %2, ptr noundef %3, i32 noundef %4) #0 {
  %6 = alloca ptr, align 8
  %7 = alloca i32, align 4
  %8 = alloca ptr, align 8
  %9 = alloca ptr, align 8
  %10 = alloca i32, align 4
  store ptr %0, ptr %6, align 8
  store i32 %1, ptr %7, align 4
  store ptr %2, ptr %8, align 8
  store ptr %3, ptr %9, align 8
  store i32 %4, ptr %10, align 4
  store ptr @.str.42, ptr @tpOID, align 8
  %11 = load ptr, ptr %6, align 8
  %12 = load i32, ptr %7, align 4
  %13 = load ptr, ptr %8, align 8
  %14 = load ptr, ptr %9, align 8
  %15 = load i32, ptr %10, align 4
  %16 = load i32, ptr @ett_h225_TunnelledProtocol, align 4
  %17 = call i32 @dissect_per_sequence(ptr noundef %11, i32 noundef %12, ptr noundef %13, ptr noundef %14, i32 noundef %15, i32 noundef %16, ptr noundef @TunnelledProtocol_sequence)
  store i32 %17, ptr %7, align 4
  %18 = load ptr, ptr @tp_dissector_table, align 8
  %19 = load ptr, ptr @tpOID, align 8
  %20 = call ptr @dissector_get_string_handle(ptr noundef %18, ptr noundef %19)
  store ptr %20, ptr @tp_handle, align 8
  %21 = load i32, ptr %7, align 4
  ret i32 %21
}