; Function Attrs: null_pointer_is_valid sspstrong uwtable
define hidden i32 @dissect_h225_TunnelledProtocol(ptr noundef %0, i32 noundef %1, ptr noundef %2, ptr noundef %3, i32 noundef %4) #0 {
  store ptr @.str.42, ptr @tpOID, align 8
  %6 = load i32, ptr @ett_h225_TunnelledProtocol, align 4
  %7 = tail call i32 @dissect_per_sequence(ptr noundef %0, i32 noundef %1, ptr noundef %2, ptr noundef %3, i32 noundef %4, i32 noundef %6, ptr noundef nonnull @TunnelledProtocol_sequence)
  %8 = load ptr, ptr @tp_dissector_table, align 8
  %9 = load ptr, ptr @tpOID, align 8
  %10 = tail call ptr @dissector_get_string_handle(ptr noundef %8, ptr noundef %9)
  store ptr %10, ptr @tp_handle, align 8
  ret i32 %7
}